target datalayout = "e-m:e-p270:32:32-p271:32:32-p272:64:64-i64:64-i128:128-f80:128-n8:16:32:64-S128"
target triple = "x86_64-pc-linux-gnu"

%"class.pxrInternal_v0_24__pxrReserved__::UsdTimeCode" = type { double }
%"class.pxrInternal_v0_24__pxrReserved__::TfCallContext" = type <{ ptr, ptr, i64, ptr, i8, [7 x i8] }>
%"struct.std::_Vector_base.816" = type { %"struct.std::_Vector_base<pxrInternal_v0_24__pxrReserved__::UsdImagingDelegate *, std::allocator<pxrInternal_v0_24__pxrReserved__::UsdImagingDelegate *>>::_Vector_impl" }
%"struct.std::_Vector_base<pxrInternal_v0_24__pxrReserved__::UsdImagingDelegate *, std::allocator<pxrInternal_v0_24__pxrReserved__::UsdImagingDelegate *>>::_Vector_impl" = type { %"struct.std::_Vector_base<pxrInternal_v0_24__pxrReserved__::UsdImagingDelegate *, std::allocator<pxrInternal_v0_24__pxrReserved__::UsdImagingDelegate *>>::_Vector_impl_data" }
%"struct.std::_Vector_base<pxrInternal_v0_24__pxrReserved__::UsdImagingDelegate *, std::allocator<pxrInternal_v0_24__pxrReserved__::UsdImagingDelegate *>>::_Vector_impl_data" = type { ptr, ptr, ptr }
%"struct.std::_Vector_base.821" = type { %"struct.std::_Vector_base<pxrInternal_v0_24__pxrReserved__::UsdTimeCode, std::allocator<pxrInternal_v0_24__pxrReserved__::UsdTimeCode>>::_Vector_impl" }
%"struct.std::_Vector_base<pxrInternal_v0_24__pxrReserved__::UsdTimeCode, std::allocator<pxrInternal_v0_24__pxrReserved__::UsdTimeCode>>::_Vector_impl" = type { %"struct.std::_Vector_base<pxrInternal_v0_24__pxrReserved__::UsdTimeCode, std::allocator<pxrInternal_v0_24__pxrReserved__::UsdTimeCode>>::_Vector_impl_data" }
%"struct.std::_Vector_base<pxrInternal_v0_24__pxrReserved__::UsdTimeCode, std::allocator<pxrInternal_v0_24__pxrReserved__::UsdTimeCode>>::_Vector_impl_data" = type { ptr, ptr, ptr }
%"class.__gnu_cxx::__normal_iterator.1537" = type { ptr }

@.str.6 = private unnamed_addr constant [132 x i8] c"generated/home/dtcxzyw/WorkSpace/Projects/compilers/llvm-opt-benchmark/bench/openusd/OpenUSD/pxr/usdImaging/usdImaging/delegate.cpp\00", align 1
@__func__._ZN32pxrInternal_v0_24__pxrReserved__18UsdImagingDelegate8SetTimesERKSt6vectorIPS0_SaIS2_EERKS1_INS_11UsdTimeCodeESaIS7_EE = private unnamed_addr constant [9 x i8] c"SetTimes\00", align 1
@.str.36 = private unnamed_addr constant [22 x i8] c"Mismatched parameters\00", align 1

; Function Attrs: mustprogress nounwind uwtable
define linkonce_odr noundef nonnull align 8 dereferenceable(8) ptr @_ZNK9__gnu_cxx17__normal_iteratorIPKPN32pxrInternal_v0_24__pxrReserved__18UsdImagingDelegateESt6vectorIS3_SaIS3_EEE4baseEv(ptr noundef nonnull align 8 dereferenceable(8) %0) #2 comdat align 2 {
  %2 = alloca ptr, align 8
  store ptr %0, ptr %2, align 8
  %3 = load ptr, ptr %2, align 8
  %4 = getelementptr inbounds nuw %"class.__gnu_cxx::__normal_iterator.1537", ptr %3, i32 0, i32 0
  ret ptr %4
}

; Function Attrs: mustprogress nounwind uwtable
define linkonce_odr void @_ZN9__gnu_cxx17__normal_iteratorIPKPN32pxrInternal_v0_24__pxrReserved__18UsdImagingDelegateESt6vectorIS3_SaIS3_EEEC2ERKS5_(ptr noundef nonnull align 8 dereferenceable(8) %0, ptr noundef nonnull align 8 dereferenceable(8) %1) unnamed_addr #2 comdat align 2 {
  %3 = alloca ptr, align 8
  %4 = alloca ptr, align 8
  store ptr %0, ptr %3, align 8
  store ptr %1, ptr %4, align 8
  %5 = load ptr, ptr %3, align 8
  %6 = getelementptr inbounds nuw %"class.__gnu_cxx::__normal_iterator.1537", ptr %5, i32 0, i32 0
  %7 = load ptr, ptr %4, align 8
  %8 = load ptr, ptr %7, align 8
  store ptr %8, ptr %6, align 8
  ret void
}

; Function Attrs: mustprogress nounwind uwtable
define linkonce_odr noundef zeroext i1 @_ZN9__gnu_cxxeqIPKPN32pxrInternal_v0_24__pxrReserved__18UsdImagingDelegateESt6vectorIS3_SaIS3_EEEEbRKNS_17__normal_iteratorIT_T0_EESE_(ptr noundef nonnull align 8 dereferenceable(8) %0, ptr noundef nonnull align 8 dereferenceable(8) %1) #2 comdat {
  %3 = alloca ptr, align 8
  %4 = alloca ptr, align 8
  store ptr %0, ptr %3, align 8
  store ptr %1, ptr %4, align 8
  %5 = load ptr, ptr %3, align 8
  %6 = call noundef nonnull align 8 dereferenceable(8) ptr @_ZNK9__gnu_cxx17__normal_iteratorIPKPN32pxrInternal_v0_24__pxrReserved__18UsdImagingDelegateESt6vectorIS3_SaIS3_EEE4baseEv(ptr noundef nonnull align 8 dereferenceable(8) %5) #10
  %7 = load ptr, ptr %6, align 8
  %8 = load ptr, ptr %4, align 8
  %9 = call noundef nonnull align 8 dereferenceable(8) ptr @_ZNK9__gnu_cxx17__normal_iteratorIPKPN32pxrInternal_v0_24__pxrReserved__18UsdImagingDelegateESt6vectorIS3_SaIS3_EEE4baseEv(ptr noundef nonnull align 8 dereferenceable(8) %8) #10
  %10 = load ptr, ptr %9, align 8
  %11 = icmp eq ptr %7, %10
  ret i1 %11
}

; Function Attrs: mustprogress nounwind uwtable
define linkonce_odr ptr @_ZNKSt6vectorIPN32pxrInternal_v0_24__pxrReserved__18UsdImagingDelegateESaIS2_EE3endEv(ptr noundef nonnull align 8 dereferenceable(24) %0) #2 comdat align 2 {
  %2 = alloca %"class.__gnu_cxx::__normal_iterator.1537", align 8
  %3 = alloca ptr, align 8
  store ptr %0, ptr %3, align 8
  %4 = load ptr, ptr %3, align 8
  %5 = getelementptr inbounds nuw %"struct.std::_Vector_base.816", ptr %4, i32 0, i32 0
  %6 = getelementptr inbounds nuw %"struct.std::_Vector_base<pxrInternal_v0_24__pxrReserved__::UsdImagingDelegate *, std::allocator<pxrInternal_v0_24__pxrReserved__::UsdImagingDelegate *>>::_Vector_impl_data", ptr %5, i32 0, i32 1
  call void @_ZN9__gnu_cxx17__normal_iteratorIPKPN32pxrInternal_v0_24__pxrReserved__18UsdImagingDelegateESt6vectorIS3_SaIS3_EEEC2ERKS5_(ptr noundef nonnull align 8 dereferenceable(8) %2, ptr noundef nonnull align 8 dereferenceable(8) %6) #10
  %7 = getelementptr inbounds nuw %"class.__gnu_cxx::__normal_iterator.1537", ptr %2, i32 0, i32 0
  %8 = load ptr, ptr %7, align 8
  ret ptr %8
}

; Function Attrs: mustprogress nounwind uwtable
define linkonce_odr ptr @_ZNKSt6vectorIPN32pxrInternal_v0_24__pxrReserved__18UsdImagingDelegateESaIS2_EE5beginEv(ptr noundef nonnull align 8 dereferenceable(24) %0) #2 comdat align 2 {
  %2 = alloca %"class.__gnu_cxx::__normal_iterator.1537", align 8
  %3 = alloca ptr, align 8
  store ptr %0, ptr %3, align 8
  %4 = load ptr, ptr %3, align 8
  %5 = getelementptr inbounds nuw %"struct.std::_Vector_base.816", ptr %4, i32 0, i32 0
  %6 = getelementptr inbounds nuw %"struct.std::_Vector_base<pxrInternal_v0_24__pxrReserved__::UsdImagingDelegate *, std::allocator<pxrInternal_v0_24__pxrReserved__::UsdImagingDelegate *>>::_Vector_impl_data", ptr %5, i32 0, i32 0
  call void @_ZN9__gnu_cxx17__normal_iteratorIPKPN32pxrInternal_v0_24__pxrReserved__18UsdImagingDelegateESt6vectorIS3_SaIS3_EEEC2ERKS5_(ptr noundef nonnull align 8 dereferenceable(8) %2, ptr noundef nonnull align 8 dereferenceable(8) %6) #10
  %7 = getelementptr inbounds nuw %"class.__gnu_cxx::__normal_iterator.1537", ptr %2, i32 0, i32 0
  %8 = load ptr, ptr %7, align 8
  ret ptr %8
}

; Function Attrs: mustprogress nounwind uwtable
define linkonce_odr noundef nonnull align 8 dereferenceable(8) ptr @_ZNKSt6vectorIN32pxrInternal_v0_24__pxrReserved__11UsdTimeCodeESaIS1_EEixEm(ptr noundef nonnull align 8 dereferenceable(24) %0, i64 noundef %1) #2 comdat align 2 {
  %3 = alloca ptr, align 8
  %4 = alloca i64, align 8
  store ptr %0, ptr %3, align 8
  store i64 %1, ptr %4, align 8
  %5 = load ptr, ptr %3, align 8
  %6 = getelementptr inbounds nuw %"struct.std::_Vector_base.821", ptr %5, i32 0, i32 0
  %7 = getelementptr inbounds nuw %"struct.std::_Vector_base<pxrInternal_v0_24__pxrReserved__::UsdTimeCode, std::allocator<pxrInternal_v0_24__pxrReserved__::UsdTimeCode>>::_Vector_impl_data", ptr %6, i32 0, i32 0
  %8 = load ptr, ptr %7, align 8
  %9 = load i64, ptr %4, align 8
  %10 = getelementptr inbounds %"class.pxrInternal_v0_24__pxrReserved__::UsdTimeCode", ptr %8, i64 %9
  ret ptr %10
}

; Function Attrs: mustprogress nounwind uwtable
define linkonce_odr noundef nonnull align 8 dereferenceable(8) ptr @_ZNKSt6vectorIPN32pxrInternal_v0_24__pxrReserved__18UsdImagingDelegateESaIS2_EEixEm(ptr noundef nonnull align 8 dereferenceable(24) %0, i64 noundef %1) #2 comdat align 2 {
  %3 = alloca ptr, align 8
  %4 = alloca i64, align 8
  store ptr %0, ptr %3, align 8
  store i64 %1, ptr %4, align 8
  %5 = load ptr, ptr %3, align 8
  %6 = getelementptr inbounds nuw %"struct.std::_Vector_base.816", ptr %5, i32 0, i32 0
  %7 = getelementptr inbounds nuw %"struct.std::_Vector_base<pxrInternal_v0_24__pxrReserved__::UsdImagingDelegate *, std::allocator<pxrInternal_v0_24__pxrReserved__::UsdImagingDelegate *>>::_Vector_impl_data", ptr %6, i32 0, i32 0
  %8 = load ptr, ptr %7, align 8
  %9 = load i64, ptr %4, align 8
  %10 = getelementptr inbounds ptr, ptr %8, i64 %9
  ret ptr %10
}

; Function Attrs: mustprogress nounwind uwtable
define linkonce_odr noundef zeroext i1 @_ZNKSt6vectorIPN32pxrInternal_v0_24__pxrReserved__18UsdImagingDelegateESaIS2_EE5emptyEv(ptr noundef nonnull align 8 dereferenceable(24) %0) #2 comdat align 2 {
  %2 = alloca ptr, align 8
  %3 = alloca %"class.__gnu_cxx::__normal_iterator.1537", align 8
  %4 = alloca %"class.__gnu_cxx::__normal_iterator.1537", align 8
  store ptr %0, ptr %2, align 8
  %5 = load ptr, ptr %2, align 8
  %6 = call ptr @_ZNKSt6vectorIPN32pxrInternal_v0_24__pxrReserved__18UsdImagingDelegateESaIS2_EE5beginEv(ptr noundef nonnull align 8 dereferenceable(24) %5) #10
  %7 = getelementptr inbounds nuw %"class.__gnu_cxx::__normal_iterator.1537", ptr %3, i32 0, i32 0
  store ptr %6, ptr %7, align 8
  %8 = call ptr @_ZNKSt6vectorIPN32pxrInternal_v0_24__pxrReserved__18UsdImagingDelegateESaIS2_EE3endEv(ptr noundef nonnull align 8 dereferenceable(24) %5) #10
  %9 = getelementptr inbounds nuw %"class.__gnu_cxx::__normal_iterator.1537", ptr %4, i32 0, i32 0
  store ptr %8, ptr %9, align 8
  %10 = call noundef zeroext i1 @_ZN9__gnu_cxxeqIPKPN32pxrInternal_v0_24__pxrReserved__18UsdImagingDelegateESt6vectorIS3_SaIS3_EEEEbRKNS_17__normal_iteratorIT_T0_EESE_(ptr noundef nonnull align 8 dereferenceable(8) %3, ptr noundef nonnull align 8 dereferenceable(8) %4) #10
  ret i1 %10
}

; Function Attrs: mustprogress nounwind uwtable
define linkonce_odr void @_ZN32pxrInternal_v0_24__pxrReserved__13TfCallContextC2EPKcS2_mS2_(ptr noundef nonnull align 8 dereferenceable(33) %0, ptr noundef %1, ptr noundef %2, i64 noundef %3, ptr noundef %4) unnamed_addr #2 comdat align 2 {
  %6 = alloca ptr, align 8
  %7 = alloca ptr, align 8
  %8 = alloca ptr, align 8
  %9 = alloca i64, align 8
  %10 = alloca ptr, align 8
  store ptr %0, ptr %6, align 8
  store ptr %1, ptr %7, align 8
  store ptr %2, ptr %8, align 8
  store i64 %3, ptr %9, align 8
  store ptr %4, ptr %10, align 8
  %11 = load ptr, ptr %6, align 8
  %12 = getelementptr inbounds nuw %"class.pxrInternal_v0_24__pxrReserved__::TfCallContext", ptr %11, i32 0, i32 0
  %13 = load ptr, ptr %7, align 8
  store ptr %13, ptr %12, align 8
  %14 = getelementptr inbounds nuw %"class.pxrInternal_v0_24__pxrReserved__::TfCallContext", ptr %11, i32 0, i32 1
  %15 = load ptr, ptr %8, align 8
  store ptr %15, ptr %14, align 8
  %16 = getelementptr inbounds nuw %"class.pxrInternal_v0_24__pxrReserved__::TfCallContext", ptr %11, i32 0, i32 2
  %17 = load i64, ptr %9, align 8
  store i64 %17, ptr %16, align 8
  %18 = getelementptr inbounds nuw %"class.pxrInternal_v0_24__pxrReserved__::TfCallContext", ptr %11, i32 0, i32 3
  %19 = load ptr, ptr %10, align 8
  store ptr %19, ptr %18, align 8
  %20 = getelementptr inbounds nuw %"class.pxrInternal_v0_24__pxrReserved__::TfCallContext", ptr %11, i32 0, i32 4
  store i8 0, ptr %20, align 8
  ret void
}

; Function Attrs: mustprogress nounwind uwtable
define linkonce_odr noundef i64 @_ZNKSt6vectorIN32pxrInternal_v0_24__pxrReserved__11UsdTimeCodeESaIS1_EE4sizeEv(ptr noundef nonnull align 8 dereferenceable(24) %0) #2 comdat align 2 {
  %2 = alloca ptr, align 8
  store ptr %0, ptr %2, align 8
  %3 = load ptr, ptr %2, align 8
  %4 = getelementptr inbounds nuw %"struct.std::_Vector_base.821", ptr %3, i32 0, i32 0
  %5 = getelementptr inbounds nuw %"struct.std::_Vector_base<pxrInternal_v0_24__pxrReserved__::UsdTimeCode, std::allocator<pxrInternal_v0_24__pxrReserved__::UsdTimeCode>>::_Vector_impl_data", ptr %4, i32 0, i32 1
  %6 = load ptr, ptr %5, align 8
  %7 = getelementptr inbounds nuw %"struct.std::_Vector_base.821", ptr %3, i32 0, i32 0
  %8 = getelementptr inbounds nuw %"struct.std::_Vector_base<pxrInternal_v0_24__pxrReserved__::UsdTimeCode, std::allocator<pxrInternal_v0_24__pxrReserved__::UsdTimeCode>>::_Vector_impl_data", ptr %7, i32 0, i32 0
  %9 = load ptr, ptr %8, align 8
  %10 = ptrtoint ptr %6 to i64
  %11 = ptrtoint ptr %9 to i64
  %12 = sub i64 %10, %11
  %13 = sdiv exact i64 %12, 8
  ret i64 %13
}

; Function Attrs: mustprogress nounwind uwtable
define linkonce_odr noundef i64 @_ZNKSt6vectorIPN32pxrInternal_v0_24__pxrReserved__18UsdImagingDelegateESaIS2_EE4sizeEv(ptr noundef nonnull align 8 dereferenceable(24) %0) #2 comdat align 2 {
  %2 = alloca ptr, align 8
  store ptr %0, ptr %2, align 8
  %3 = load ptr, ptr %2, align 8
  %4 = getelementptr inbounds nuw %"struct.std::_Vector_base.816", ptr %3, i32 0, i32 0
  %5 = getelementptr inbounds nuw %"struct.std::_Vector_base<pxrInternal_v0_24__pxrReserved__::UsdImagingDelegate *, std::allocator<pxrInternal_v0_24__pxrReserved__::UsdImagingDelegate *>>::_Vector_impl_data", ptr %4, i32 0, i32 1
  %6 = load ptr, ptr %5, align 8
  %7 = getelementptr inbounds nuw %"struct.std::_Vector_base.816", ptr %3, i32 0, i32 0
  %8 = getelementptr inbounds nuw %"struct.std::_Vector_base<pxrInternal_v0_24__pxrReserved__::UsdImagingDelegate *, std::allocator<pxrInternal_v0_24__pxrReserved__::UsdImagingDelegate *>>::_Vector_impl_data", ptr %7, i32 0, i32 0
  %9 = load ptr, ptr %8, align 8
  %10 = ptrtoint ptr %6 to i64
  %11 = ptrtoint ptr %9 to i64
  %12 = sub i64 %10, %11
  %13 = sdiv exact i64 %12, 8
  ret i64 %13
}

; Function Attrs: mustprogress uwtable
define void @_ZN32pxrInternal_v0_24__pxrReserved__18UsdImagingDelegate8SetTimesERKSt6vectorIPS0_SaIS2_EERKS1_INS_11UsdTimeCodeESaIS7_EE(ptr noundef nonnull align 8 dereferenceable(24) %0, ptr noundef nonnull align 8 dereferenceable(24) %1) #0 align 2 {
  %3 = alloca ptr, align 8
  %4 = alloca ptr, align 8
  %5 = alloca %"class.pxrInternal_v0_24__pxrReserved__::TfCallContext", align 8
  %6 = alloca i64, align 8
  %7 = alloca %"class.pxrInternal_v0_24__pxrReserved__::UsdTimeCode", align 8
  store ptr %0, ptr %3, align 8
  store ptr %1, ptr %4, align 8
  %8 = load ptr, ptr %3, align 8
  %9 = call noundef i64 @_ZNKSt6vectorIPN32pxrInternal_v0_24__pxrReserved__18UsdImagingDelegateESaIS2_EE4sizeEv(ptr noundef nonnull align 8 dereferenceable(24) %8) #10
  %10 = load ptr, ptr %4, align 8
  %11 = call noundef i64 @_ZNKSt6vectorIN32pxrInternal_v0_24__pxrReserved__11UsdTimeCodeESaIS1_EE4sizeEv(ptr noundef nonnull align 8 dereferenceable(24) %10) #10
  %12 = icmp ne i64 %9, %11
  br i1 %12, label %13, label %14

13:                                               ; preds = %2
  call void @_ZN32pxrInternal_v0_24__pxrReserved__13TfCallContextC2EPKcS2_mS2_(ptr noundef nonnull align 8 dereferenceable(33) %5, ptr noundef @.str.6, ptr noundef @__func__._ZN32pxrInternal_v0_24__pxrReserved__18UsdImagingDelegate8SetTimesERKSt6vectorIPS0_SaIS2_EERKS1_INS_11UsdTimeCodeESaIS7_EE, i64 noundef 898, ptr noundef @__PRETTY_FUNCTION__._ZN32pxrInternal_v0_24__pxrReserved__18UsdImagingDelegate8SetTimesERKSt6vectorIPS0_SaIS2_EERKS1_INS_11UsdTimeCodeESaIS7_EE)
  call void (ptr, i32, ptr, ...) @_ZN32pxrInternal_v0_24__pxrReserved__18Tf_PostErrorHelperERKNS_13TfCallContextENS_16TfDiagnosticTypeEPKcz(ptr noundef nonnull align 8 dereferenceable(33) %5, i32 noundef 1, ptr noundef @.str.36)
  br label %37

14:                                               ; preds = %2
  %15 = load ptr, ptr %3, align 8
  %16 = call noundef zeroext i1 @_ZNKSt6vectorIPN32pxrInternal_v0_24__pxrReserved__18UsdImagingDelegateESaIS2_EE5emptyEv(ptr noundef nonnull align 8 dereferenceable(24) %15) #10
  br i1 %16, label %17, label %18

17:                                               ; preds = %14
  br label %37

18:                                               ; preds = %14
  store i64 0, ptr %6, align 8
  br label %19

19:                                               ; preds = %34, %18
  %20 = load i64, ptr %6, align 8
  %21 = load ptr, ptr %3, align 8
  %22 = call noundef i64 @_ZNKSt6vectorIPN32pxrInternal_v0_24__pxrReserved__18UsdImagingDelegateESaIS2_EE4sizeEv(ptr noundef nonnull align 8 dereferenceable(24) %21) #10
  %23 = icmp ult i64 %20, %22
  br i1 %23, label %24, label %37

24:                                               ; preds = %19
  %25 = load ptr, ptr %3, align 8
  %26 = load i64, ptr %6, align 8
  %27 = call noundef nonnull align 8 dereferenceable(8) ptr @_ZNKSt6vectorIPN32pxrInternal_v0_24__pxrReserved__18UsdImagingDelegateESaIS2_EEixEm(ptr noundef nonnull align 8 dereferenceable(24) %25, i64 noundef %26) #10
  %28 = load ptr, ptr %27, align 8
  %29 = load ptr, ptr %4, align 8
  %30 = load i64, ptr %6, align 8
  %31 = call noundef nonnull align 8 dereferenceable(8) ptr @_ZNKSt6vectorIN32pxrInternal_v0_24__pxrReserved__11UsdTimeCodeESaIS1_EEixEm(ptr noundef nonnull align 8 dereferenceable(24) %29, i64 noundef %30) #10
  call void @llvm.memcpy.p0.p0.i64(ptr align 8 %7, ptr align 8 %31, i64 8, i1 false)
  %32 = getelementptr inbounds nuw %"class.pxrInternal_v0_24__pxrReserved__::UsdTimeCode", ptr %7, i32 0, i32 0
  %33 = load double, ptr %32, align 8
  call void @_ZN32pxrInternal_v0_24__pxrReserved__18UsdImagingDelegate7SetTimeENS_11UsdTimeCodeE(ptr noundef nonnull align 8 dereferenceable(9790) %28, double %33)
  br label %34

34:                                               ; preds = %24
  %35 = load i64, ptr %6, align 8
  %36 = add i64 %35, 1
  store i64 %36, ptr %6, align 8
  br label %19, !llvm.loop !16

37:                                               ; preds = %19, %17, %13
  ret void
}