; Function Attrs: mustprogress uwtable
define void @_ZN32pxrInternal_v0_24__pxrReserved__18UsdImagingDelegate8SetTimesERKSt6vectorIPS0_SaIS2_EERKS1_INS_11UsdTimeCodeESaIS7_EE(ptr nocapture noundef nonnull readonly align 8 dereferenceable(24) %0, ptr nocapture noundef nonnull readonly align 8 dereferenceable(24) %1) local_unnamed_addr #0 align 2 {
  %3 = alloca %"class.pxrInternal_v0_24__pxrReserved__::TfCallContext", align 8
  %4 = getelementptr inbounds nuw i8, ptr %0, i64 8
  %5 = load ptr, ptr %4, align 8
  %6 = load ptr, ptr %0, align 8
  %7 = ptrtoint ptr %5 to i64
  %8 = ptrtoint ptr %6 to i64
  %9 = sub i64 %7, %8
  %10 = getelementptr inbounds nuw i8, ptr %1, i64 8
  %11 = load ptr, ptr %10, align 8
  %12 = load ptr, ptr %1, align 8
  %13 = ptrtoint ptr %11 to i64
  %14 = ptrtoint ptr %12 to i64
  %15 = sub i64 %13, %14
  %.not = icmp eq i64 %9, %15
  br i1 %.not, label %21, label %16

16:                                               ; preds = %2
  store ptr @.str.6, ptr %3, align 8
  %17 = getelementptr inbounds nuw i8, ptr %3, i64 8
  store ptr @__func__._ZN32pxrInternal_v0_24__pxrReserved__18UsdImagingDelegate8SetTimesERKSt6vectorIPS0_SaIS2_EERKS1_INS_11UsdTimeCodeESaIS7_EE, ptr %17, align 8
  %18 = getelementptr inbounds nuw i8, ptr %3, i64 16
  store i64 898, ptr %18, align 8
  %19 = getelementptr inbounds nuw i8, ptr %3, i64 24
  store ptr @__PRETTY_FUNCTION__._ZN32pxrInternal_v0_24__pxrReserved__18UsdImagingDelegate8SetTimesERKSt6vectorIPS0_SaIS2_EERKS1_INS_11UsdTimeCodeESaIS7_EE, ptr %19, align 8
  %20 = getelementptr inbounds nuw i8, ptr %3, i64 32
  store i8 0, ptr %20, align 8
  call void (ptr, i32, ptr, ...) @_ZN32pxrInternal_v0_24__pxrReserved__18Tf_PostErrorHelperERKNS_13TfCallContextENS_16TfDiagnosticTypeEPKcz(ptr noundef nonnull align 8 dereferenceable(33) %3, i32 noundef 1, ptr noundef nonnull @.str.36)
  br label %.loopexit

21:                                               ; preds = %2
  %22 = icmp eq ptr %6, %5
  br i1 %22, label %.loopexit, label %.lr.ph

.lr.ph:                                           ; preds = %21, %.lr.ph
  %23 = phi ptr [ %30, %.lr.ph ], [ %6, %21 ]
  %.09 = phi i64 [ %28, %.lr.ph ], [ 0, %21 ]
  %24 = getelementptr inbounds ptr, ptr %23, i64 %.09
  %25 = load ptr, ptr %24, align 8
  %26 = load ptr, ptr %1, align 8
  %27 = getelementptr inbounds %"class.pxrInternal_v0_24__pxrReserved__::UsdTimeCode", ptr %26, i64 %.09
  %.sroa.0.0.copyload = load double, ptr %27, align 8
  tail call void @_ZN32pxrInternal_v0_24__pxrReserved__18UsdImagingDelegate7SetTimeENS_11UsdTimeCodeE(ptr noundef nonnull align 8 dereferenceable(9790) %25, double %.sroa.0.0.copyload)
  %28 = add nuw i64 %.09, 1
  %29 = load ptr, ptr %4, align 8
  %30 = load ptr, ptr %0, align 8
  %31 = ptrtoint ptr %29 to i64
  %32 = ptrtoint ptr %30 to i64
  %33 = sub i64 %31, %32
  %34 = ashr exact i64 %33, 3
  %35 = icmp ult i64 %28, %34
  br i1 %35, label %.lr.ph, label %.loopexit, !llvm.loop !259

.loopexit:                                        ; preds = %.lr.ph, %21, %16
  ret void
}